target datalayout = "e-m:e-p270:32:32-p271:32:32-p272:64:64-i64:64-i128:128-f80:128-n8:16:32:64-S128"
target triple = "x86_64-pc-linux-gnu"

%struct.cdf_header_t = type { i64, [2 x i64], i16, i16, i16, i16, i16, [10 x i8], i32, i32, [4 x i8], i32, i32, i32, i32, i32, [109 x i32] }
%struct.cdf_directory_t = type { [32 x i16], i16, i8, i8, i32, i32, i32, [2 x i64], i32, i64, i64, i32, i32, i32 }
%struct.cdf_stream_t = type { ptr, i64, i64, i64 }
%struct.cdf_dir_t = type { ptr, i64 }

@.str.2 = private unnamed_addr constant [20 x i8] c"\05SummaryInformation\00", align 1

; Function Attrs: nounwind uwtable
define hidden i32 @cdf_read_sector_chain(ptr noundef %0, ptr noundef %1, ptr noundef %2, ptr noundef %3, ptr noundef %4, i32 noundef %5, i64 noundef %6, ptr noundef %7) #0 {
  %9 = alloca i32, align 4
  %10 = alloca ptr, align 8
  %11 = alloca ptr, align 8
  %12 = alloca ptr, align 8
  %13 = alloca ptr, align 8
  %14 = alloca ptr, align 8
  %15 = alloca i32, align 4
  %16 = alloca i64, align 8
  %17 = alloca ptr, align 8
  store ptr %0, ptr %10, align 8, !tbaa !16
  store ptr %1, ptr %11, align 8, !tbaa !16
  store ptr %2, ptr %12, align 8, !tbaa !16
  store ptr %3, ptr %13, align 8, !tbaa !16
  store ptr %4, ptr %14, align 8, !tbaa !16
  store i32 %5, ptr %15, align 4, !tbaa !12
  store i64 %6, ptr %16, align 8, !tbaa !14
  store ptr %7, ptr %17, align 8, !tbaa !16
  %18 = load i64, ptr %16, align 8, !tbaa !14
  %19 = load ptr, ptr %11, align 8, !tbaa !16
  %20 = getelementptr inbounds nuw %struct.cdf_header_t, ptr %19, i32 0, i32 11
  %21 = load i32, ptr %20, align 8, !tbaa !26
  %22 = zext i32 %21 to i64
  %23 = icmp ult i64 %18, %22
  br i1 %23, label %24, label %37

24:                                               ; preds = %8
  %25 = load ptr, ptr %14, align 8, !tbaa !16
  %26 = getelementptr inbounds nuw %struct.cdf_stream_t, ptr %25, i32 0, i32 0
  %27 = load ptr, ptr %26, align 8, !tbaa !47
  %28 = icmp ne ptr %27, null
  br i1 %28, label %29, label %37

29:                                               ; preds = %24
  %30 = load ptr, ptr %11, align 8, !tbaa !16
  %31 = load ptr, ptr %13, align 8, !tbaa !16
  %32 = load ptr, ptr %14, align 8, !tbaa !16
  %33 = load i32, ptr %15, align 4, !tbaa !12
  %34 = load i64, ptr %16, align 8, !tbaa !14
  %35 = load ptr, ptr %17, align 8, !tbaa !16
  %36 = call i32 @cdf_read_short_sector_chain(ptr noundef %30, ptr noundef %31, ptr noundef %32, i32 noundef %33, i64 noundef %34, ptr noundef %35)
  store i32 %36, ptr %9, align 4
  br label %45

37:                                               ; preds = %24, %8
  %38 = load ptr, ptr %10, align 8, !tbaa !16
  %39 = load ptr, ptr %11, align 8, !tbaa !16
  %40 = load ptr, ptr %12, align 8, !tbaa !16
  %41 = load i32, ptr %15, align 4, !tbaa !12
  %42 = load i64, ptr %16, align 8, !tbaa !14
  %43 = load ptr, ptr %17, align 8, !tbaa !16
  %44 = call i32 @cdf_read_long_sector_chain(ptr noundef %38, ptr noundef %39, ptr noundef %40, i32 noundef %41, i64 noundef %42, ptr noundef %43)
  store i32 %44, ptr %9, align 4
  br label %45

45:                                               ; preds = %37, %29
  %46 = load i32, ptr %9, align 4
  ret i32 %46
}

; Function Attrs: nounwind uwtable
define hidden i32 @cdf_read_user_stream(ptr noundef %0, ptr noundef %1, ptr noundef %2, ptr noundef %3, ptr noundef %4, ptr noundef %5, ptr noundef %6, ptr noundef %7) #0 {
  %9 = alloca i32, align 4
  %10 = alloca ptr, align 8
  %11 = alloca ptr, align 8
  %12 = alloca ptr, align 8
  %13 = alloca ptr, align 8
  %14 = alloca ptr, align 8
  %15 = alloca ptr, align 8
  %16 = alloca ptr, align 8
  %17 = alloca ptr, align 8
  %18 = alloca ptr, align 8
  %19 = alloca i32, align 4
  %20 = alloca i32, align 4
  store ptr %0, ptr %10, align 8, !tbaa !16
  store ptr %1, ptr %11, align 8, !tbaa !16
  store ptr %2, ptr %12, align 8, !tbaa !16
  store ptr %3, ptr %13, align 8, !tbaa !16
  store ptr %4, ptr %14, align 8, !tbaa !16
  store ptr %5, ptr %15, align 8, !tbaa !16
  store ptr %6, ptr %16, align 8, !tbaa !9
  store ptr %7, ptr %17, align 8, !tbaa !16
  call void @llvm.lifetime.start.p0(i64 8, ptr %18) #13
  call void @llvm.lifetime.start.p0(i64 4, ptr %19) #13
  %21 = load ptr, ptr %15, align 8, !tbaa !16
  %22 = load ptr, ptr %16, align 8, !tbaa !9
  %23 = call i32 @cdf_find_stream(ptr noundef %21, ptr noundef %22, i32 noundef 2)
  store i32 %23, ptr %19, align 4, !tbaa !12
  %24 = load i32, ptr %19, align 4, !tbaa !12
  %25 = icmp sle i32 %24, 0
  br i1 %25, label %26, label %28

26:                                               ; preds = %8
  %27 = load ptr, ptr %17, align 8, !tbaa !16
  call void @llvm.memset.p0.i64(ptr align 8 %27, i8 0, i64 32, i1 false)
  store i32 -1, ptr %9, align 4
  store i32 1, ptr %20, align 4
  br label %50

28:                                               ; preds = %8
  %29 = load ptr, ptr %15, align 8, !tbaa !16
  %30 = getelementptr inbounds nuw %struct.cdf_dir_t, ptr %29, i32 0, i32 0
  %31 = load ptr, ptr %30, align 8, !tbaa !59
  %32 = load i32, ptr %19, align 4, !tbaa !12
  %33 = sub nsw i32 %32, 1
  %34 = sext i32 %33 to i64
  %35 = getelementptr inbounds %struct.cdf_directory_t, ptr %31, i64 %34
  store ptr %35, ptr %18, align 8, !tbaa !16
  %36 = load ptr, ptr %10, align 8, !tbaa !16
  %37 = load ptr, ptr %11, align 8, !tbaa !16
  %38 = load ptr, ptr %12, align 8, !tbaa !16
  %39 = load ptr, ptr %13, align 8, !tbaa !16
  %40 = load ptr, ptr %14, align 8, !tbaa !16
  %41 = load ptr, ptr %18, align 8, !tbaa !16
  %42 = getelementptr inbounds nuw %struct.cdf_directory_t, ptr %41, i32 0, i32 11
  %43 = load i32, ptr %42, align 8, !tbaa !39
  %44 = load ptr, ptr %18, align 8, !tbaa !16
  %45 = getelementptr inbounds nuw %struct.cdf_directory_t, ptr %44, i32 0, i32 12
  %46 = load i32, ptr %45, align 4, !tbaa !40
  %47 = zext i32 %46 to i64
  %48 = load ptr, ptr %17, align 8, !tbaa !16
  %49 = call i32 @cdf_read_sector_chain(ptr noundef %36, ptr noundef %37, ptr noundef %38, ptr noundef %39, ptr noundef %40, i32 noundef %43, i64 noundef %47, ptr noundef %48)
  store i32 %49, ptr %9, align 4
  store i32 1, ptr %20, align 4
  br label %50

50:                                               ; preds = %28, %26
  call void @llvm.lifetime.end.p0(i64 4, ptr %19) #13
  call void @llvm.lifetime.end.p0(i64 8, ptr %18) #13
  %51 = load i32, ptr %9, align 4
  ret i32 %51
}

; Function Attrs: nounwind uwtable
define hidden i32 @cdf_read_summary_info(ptr noundef %0, ptr noundef %1, ptr noundef %2, ptr noundef %3, ptr noundef %4, ptr noundef %5, ptr noundef %6) #0 {
  %8 = alloca ptr, align 8
  %9 = alloca ptr, align 8
  %10 = alloca ptr, align 8
  %11 = alloca ptr, align 8
  %12 = alloca ptr, align 8
  %13 = alloca ptr, align 8
  %14 = alloca ptr, align 8
  store ptr %0, ptr %8, align 8, !tbaa !16
  store ptr %1, ptr %9, align 8, !tbaa !16
  store ptr %2, ptr %10, align 8, !tbaa !16
  store ptr %3, ptr %11, align 8, !tbaa !16
  store ptr %4, ptr %12, align 8, !tbaa !16
  store ptr %5, ptr %13, align 8, !tbaa !16
  store ptr %6, ptr %14, align 8, !tbaa !16
  %15 = load ptr, ptr %8, align 8, !tbaa !16
  %16 = load ptr, ptr %9, align 8, !tbaa !16
  %17 = load ptr, ptr %10, align 8, !tbaa !16
  %18 = load ptr, ptr %11, align 8, !tbaa !16
  %19 = load ptr, ptr %12, align 8, !tbaa !16
  %20 = load ptr, ptr %13, align 8, !tbaa !16
  %21 = load ptr, ptr %14, align 8, !tbaa !16
  %22 = call i32 @cdf_read_user_stream(ptr noundef %15, ptr noundef %16, ptr noundef %17, ptr noundef %18, ptr noundef %19, ptr noundef %20, ptr noundef @.str.2, ptr noundef %21)
  ret i32 %22
}