; Function Attrs: nounwind uwtable
define hidden range(i32 -1, 1) i32 @cdf_read_summary_info(ptr noundef readonly captures(none) %0, ptr noundef readonly captures(none) %1, ptr noundef readonly captures(none) %2, ptr noundef readonly captures(none) %3, ptr noundef readonly captures(none) %4, ptr noundef readonly captures(none) %5, ptr noundef captures(none) initializes((0, 8)) %6) local_unnamed_addr #7 {
  %8 = tail call i32 @cdf_find_stream(ptr noundef readonly %5, ptr noundef nonnull @.str.2, i32 noundef 2)
  %9 = icmp slt i32 %8, 1
  br i1 %9, label %10, label %11

10:                                               ; preds = %7
  tail call void @llvm.memset.p0.i64(ptr noundef nonnull align 8 dereferenceable(32) %6, i8 0, i64 32, i1 false)
  br label %cdf_read_user_stream.exit

11:                                               ; preds = %7
  %12 = load ptr, ptr %5, align 8, !tbaa !35
  %13 = zext nneg i32 %8 to i64
  %14 = getelementptr %struct.cdf_directory_t, ptr %12, i64 %13
  %15 = getelementptr i8, ptr %14, i64 -16
  %16 = load i32, ptr %15, align 8, !tbaa !40
  %17 = getelementptr i8, ptr %14, i64 -12
  %18 = load i32, ptr %17, align 4, !tbaa !41
  %19 = zext i32 %18 to i64
  %20 = getelementptr inbounds nuw i8, ptr %1, i64 56
  %21 = load i32, ptr %20, align 8, !tbaa !29
  %22 = icmp ult i32 %18, %21
  br i1 %22, label %23, label %27

23:                                               ; preds = %11
  %24 = load ptr, ptr %4, align 8, !tbaa !4
  %.not.i.i = icmp eq ptr %24, null
  br i1 %.not.i.i, label %27, label %25

25:                                               ; preds = %23
  %26 = tail call i32 @cdf_read_short_sector_chain(ptr noundef nonnull readonly %1, ptr noundef readonly %3, ptr noundef nonnull readonly %4, i32 noundef %16, i64 noundef %19, ptr noundef %6)
  br label %cdf_read_user_stream.exit

27:                                               ; preds = %23, %11
  %28 = tail call i32 @cdf_read_long_sector_chain(ptr noundef readonly %0, ptr noundef nonnull readonly %1, ptr noundef readonly %2, i32 noundef %16, i64 noundef %19, ptr noundef %6)
  br label %cdf_read_user_stream.exit

cdf_read_user_stream.exit:                        ; preds = %10, %25, %27
  %.0.i = phi i32 [ -1, %10 ], [ %26, %25 ], [ %28, %27 ]
  ret i32 %.0.i
}